; ModuleID = '55/493.c'
source_filename = "55/493.c"
target datalayout = "e-m:e-p270:32:32-p271:32:32-p272:64:64-i64:64-f80:128-n8:16:32:64-S128"
target triple = "x86_64-pc-linux-gnu"

@.str = private unnamed_addr constant [7 x i8] c"%d%s%d\00", align 1
@.str.1 = private unnamed_addr constant [3 x i8] c"%c\00", align 1
@.str.2 = private unnamed_addr constant [2 x i8] c"0\00", align 1
@.str.3 = private unnamed_addr constant [2 x i8] c"\0A\00", align 1

; Function Attrs: noinline nounwind uwtable
define dso_local void @main() #0 {
  %1 = alloca i32, align 4
  %2 = alloca i32, align 4
  %3 = alloca i32, align 4
  %4 = alloca i32, align 4
  %5 = alloca i32, align 4
  %6 = alloca i64, align 8
  %7 = alloca i32, align 4
  %8 = alloca i32, align 4
  %9 = alloca [100 x i8], align 16
  store i64 0, i64* %6, align 8
  %10 = getelementptr inbounds [100 x i8], [100 x i8]* %9, i64 0, i64 0
  %11 = call i32 (i8*, ...) @__isoc99_scanf(i8* getelementptr inbounds ([7 x i8], [7 x i8]* @.str, i64 0, i64 0), i32* %7, i8* %10, i32* %8)
  store i32 0, i32* %1, align 4
  br label %12

12:                                               ; preds = %95, %0
  %13 = load i32, i32* %1, align 4
  %14 = sext i32 %13 to i64
  %15 = getelementptr inbounds [100 x i8], [100 x i8]* %9, i64 0, i64 0
  %16 = call i64 @strlen(i8* %15) #3
  %17 = icmp ult i64 %14, %16
  br i1 %17, label %18, label %98

18:                                               ; preds = %12
  %19 = load i32, i32* %1, align 4
  %20 = sext i32 %19 to i64
  %21 = getelementptr inbounds [100 x i8], [100 x i8]* %9, i64 0, i64 %20
  %22 = load i8, i8* %21, align 1
  %23 = sext i8 %22 to i32
  %24 = icmp sge i32 %23, 48
  br i1 %24, label %25, label %40

25:                                               ; preds = %18
  %26 = load i32, i32* %1, align 4
  %27 = sext i32 %26 to i64
  %28 = getelementptr inbounds [100 x i8], [100 x i8]* %9, i64 0, i64 %27
  %29 = load i8, i8* %28, align 1
  %30 = sext i8 %29 to i32
  %31 = icmp sle i32 %30, 57
  br i1 %31, label %32, label %40

32:                                               ; preds = %25
  %33 = load i32, i32* %1, align 4
  %34 = sext i32 %33 to i64
  %35 = getelementptr inbounds [100 x i8], [100 x i8]* %9, i64 0, i64 %34
  %36 = load i8, i8* %35, align 1
  %37 = sext i8 %36 to i32
  %38 = sub nsw i32 %37, 47
  %39 = trunc i32 %38 to i8
  store i8 %39, i8* %35, align 1
  br label %94

40:                                               ; preds = %25, %18
  %41 = load i32, i32* %1, align 4
  %42 = sext i32 %41 to i64
  %43 = getelementptr inbounds [100 x i8], [100 x i8]* %9, i64 0, i64 %42
  %44 = load i8, i8* %43, align 1
  %45 = sext i8 %44 to i32
  %46 = icmp sge i32 %45, 97
  br i1 %46, label %47, label %66

47:                                               ; preds = %40
  %48 = load i32, i32* %1, align 4
  %49 = sext i32 %48 to i64
  %50 = getelementptr inbounds [100 x i8], [100 x i8]* %9, i64 0, i64 %49
  %51 = load i8, i8* %50, align 1
  %52 = sext i8 %51 to i32
  %53 = icmp sle i32 %52, 122
  br i1 %53, label %54, label %66

54:                                               ; preds = %47
  %55 = load i32, i32* %1, align 4
  %56 = sext i32 %55 to i64
  %57 = getelementptr inbounds [100 x i8], [100 x i8]* %9, i64 0, i64 %56
  %58 = load i8, i8* %57, align 1
  %59 = sext i8 %58 to i32
  %60 = sub nsw i32 %59, 97
  %61 = add nsw i32 %60, 11
  %62 = trunc i32 %61 to i8
  %63 = load i32, i32* %1, align 4
  %64 = sext i32 %63 to i64
  %65 = getelementptr inbounds [100 x i8], [100 x i8]* %9, i64 0, i64 %64
  store i8 %62, i8* %65, align 1
  br label %93

66:                                               ; preds = %47, %40
  %67 = load i32, i32* %1, align 4
  %68 = sext i32 %67 to i64
  %69 = getelementptr inbounds [100 x i8], [100 x i8]* %9, i64 0, i64 %68
  %70 = load i8, i8* %69, align 1
  %71 = sext i8 %70 to i32
  %72 = icmp sge i32 %71, 65
  br i1 %72, label %73, label %92

73:                                               ; preds = %66
  %74 = load i32, i32* %1, align 4
  %75 = sext i32 %74 to i64
  %76 = getelementptr inbounds [100 x i8], [100 x i8]* %9, i64 0, i64 %75
  %77 = load i8, i8* %76, align 1
  %78 = sext i8 %77 to i32
  %79 = icmp sle i32 %78, 90
  br i1 %79, label %80, label %92

80:                                               ; preds = %73
  %81 = load i32, i32* %1, align 4
  %82 = sext i32 %81 to i64
  %83 = getelementptr inbounds [100 x i8], [100 x i8]* %9, i64 0, i64 %82
  %84 = load i8, i8* %83, align 1
  %85 = sext i8 %84 to i32
  %86 = sub nsw i32 %85, 65
  %87 = add nsw i32 %86, 11
  %88 = trunc i32 %87 to i8
  %89 = load i32, i32* %1, align 4
  %90 = sext i32 %89 to i64
  %91 = getelementptr inbounds [100 x i8], [100 x i8]* %9, i64 0, i64 %90
  store i8 %88, i8* %91, align 1
  br label %92

92:                                               ; preds = %80, %73, %66
  br label %93

93:                                               ; preds = %92, %54
  br label %94

94:                                               ; preds = %93, %32
  br label %95

95:                                               ; preds = %94
  %96 = load i32, i32* %1, align 4
  %97 = add nsw i32 %96, 1
  store i32 %97, i32* %1, align 4
  br label %12

98:                                               ; preds = %12
  store i32 0, i32* %3, align 4
  br label %99

99:                                               ; preds = %118, %98
  %100 = load i32, i32* %3, align 4
  %101 = sext i32 %100 to i64
  %102 = getelementptr inbounds [100 x i8], [100 x i8]* %9, i64 0, i64 0
  %103 = call i64 @strlen(i8* %102) #3
  %104 = icmp ult i64 %101, %103
  br i1 %104, label %105, label %121

105:                                              ; preds = %99
  %106 = load i64, i64* %6, align 8
  %107 = load i32, i32* %7, align 4
  %108 = sext i32 %107 to i64
  %109 = mul nsw i64 %106, %108
  %110 = load i32, i32* %3, align 4
  %111 = sext i32 %110 to i64
  %112 = getelementptr inbounds [100 x i8], [100 x i8]* %9, i64 0, i64 %111
  %113 = load i8, i8* %112, align 1
  %114 = sext i8 %113 to i32
  %115 = sub nsw i32 %114, 1
  %116 = sext i32 %115 to i64
  %117 = add nsw i64 %109, %116
  store i64 %117, i64* %6, align 8
  br label %118

118:                                              ; preds = %105
  %119 = load i32, i32* %3, align 4
  %120 = add nsw i32 %119, 1
  store i32 %120, i32* %3, align 4
  br label %99

121:                                              ; preds = %99
  store i32 0, i32* %2, align 4
  br label %122

122:                                              ; preds = %138, %121
  %123 = load i64, i64* %6, align 8
  %124 = icmp sgt i64 %123, 0
  br i1 %124, label %125, label %141

125:                                              ; preds = %122
  %126 = load i64, i64* %6, align 8
  %127 = load i32, i32* %8, align 4
  %128 = sext i32 %127 to i64
  %129 = srem i64 %126, %128
  %130 = trunc i64 %129 to i8
  %131 = load i32, i32* %2, align 4
  %132 = sext i32 %131 to i64
  %133 = getelementptr inbounds [100 x i8], [100 x i8]* %9, i64 0, i64 %132
  store i8 %130, i8* %133, align 1
  %134 = load i64, i64* %6, align 8
  %135 = load i32, i32* %8, align 4
  %136 = sext i32 %135 to i64
  %137 = sdiv i64 %134, %136
  store i64 %137, i64* %6, align 8
  br label %138

138:                                              ; preds = %125
  %139 = load i32, i32* %2, align 4
  %140 = add nsw i32 %139, 1
  store i32 %140, i32* %2, align 4
  br label %122

141:                                              ; preds = %122
  store i32 0, i32* %4, align 4
  br label %142

142:                                              ; preds = %196, %141
  %143 = load i32, i32* %4, align 4
  %144 = load i32, i32* %2, align 4
  %145 = icmp slt i32 %143, %144
  br i1 %145, label %146, label %199

146:                                              ; preds = %142
  %147 = load i32, i32* %4, align 4
  %148 = sext i32 %147 to i64
  %149 = getelementptr inbounds [100 x i8], [100 x i8]* %9, i64 0, i64 %148
  %150 = load i8, i8* %149, align 1
  %151 = sext i8 %150 to i32
  %152 = icmp sge i32 %151, 0
  br i1 %152, label %153, label %168

153:                                              ; preds = %146
  %154 = load i32, i32* %4, align 4
  %155 = sext i32 %154 to i64
  %156 = getelementptr inbounds [100 x i8], [100 x i8]* %9, i64 0, i64 %155
  %157 = load i8, i8* %156, align 1
  %158 = sext i8 %157 to i32
  %159 = icmp sle i32 %158, 9
  br i1 %159, label %160, label %168

160:                                              ; preds = %153
  %161 = load i32, i32* %4, align 4
  %162 = sext i32 %161 to i64
  %163 = getelementptr inbounds [100 x i8], [100 x i8]* %9, i64 0, i64 %162
  %164 = load i8, i8* %163, align 1
  %165 = sext i8 %164 to i32
  %166 = add nsw i32 %165, 48
  %167 = trunc i32 %166 to i8
  store i8 %167, i8* %163, align 1
  br label %195

168:                                              ; preds = %153, %146
  %169 = load i32, i32* %4, align 4
  %170 = sext i32 %169 to i64
  %171 = getelementptr inbounds [100 x i8], [100 x i8]* %9, i64 0, i64 %170
  %172 = load i8, i8* %171, align 1
  %173 = sext i8 %172 to i32
  %174 = icmp sge i32 %173, 10
  br i1 %174, label %175, label %194

175:                                              ; preds = %168
  %176 = load i32, i32* %4, align 4
  %177 = sext i32 %176 to i64
  %178 = getelementptr inbounds [100 x i8], [100 x i8]* %9, i64 0, i64 %177
  %179 = load i8, i8* %178, align 1
  %180 = sext i8 %179 to i32
  %181 = icmp sle i32 %180, 36
  br i1 %181, label %182, label %194

182:                                              ; preds = %175
  %183 = load i32, i32* %4, align 4
  %184 = sext i32 %183 to i64
  %185 = getelementptr inbounds [100 x i8], [100 x i8]* %9, i64 0, i64 %184
  %186 = load i8, i8* %185, align 1
  %187 = sext i8 %186 to i32
  %188 = add nsw i32 %187, 65
  %189 = sub nsw i32 %188, 10
  %190 = trunc i32 %189 to i8
  %191 = load i32, i32* %4, align 4
  %192 = sext i32 %191 to i64
  %193 = getelementptr inbounds [100 x i8], [100 x i8]* %9, i64 0, i64 %192
  store i8 %190, i8* %193, align 1
  br label %194

194:                                              ; preds = %182, %175, %168
  br label %195

195:                                              ; preds = %194, %160
  br label %196

196:                                              ; preds = %195
  %197 = load i32, i32* %4, align 4
  %198 = add nsw i32 %197, 1
  store i32 %198, i32* %4, align 4
  br label %142

199:                                              ; preds = %142
  %200 = load i32, i32* %2, align 4
  %201 = icmp ne i32 %200, 0
  br i1 %201, label %202, label %219

202:                                              ; preds = %199
  %203 = load i32, i32* %2, align 4
  %204 = sub nsw i32 %203, 1
  store i32 %204, i32* %5, align 4
  br label %205

205:                                              ; preds = %215, %202
  %206 = load i32, i32* %5, align 4
  %207 = icmp sge i32 %206, 0
  br i1 %207, label %208, label %218

208:                                              ; preds = %205
  %209 = load i32, i32* %5, align 4
  %210 = sext i32 %209 to i64
  %211 = getelementptr inbounds [100 x i8], [100 x i8]* %9, i64 0, i64 %210
  %212 = load i8, i8* %211, align 1
  %213 = sext i8 %212 to i32
  %214 = call i32 (i8*, ...) @printf(i8* getelementptr inbounds ([3 x i8], [3 x i8]* @.str.1, i64 0, i64 0), i32 %213)
  br label %215

215:                                              ; preds = %208
  %216 = load i32, i32* %5, align 4
  %217 = add nsw i32 %216, -1
  store i32 %217, i32* %5, align 4
  br label %205

218:                                              ; preds = %205
  br label %221

219:                                              ; preds = %199
  %220 = call i32 (i8*, ...) @printf(i8* getelementptr inbounds ([2 x i8], [2 x i8]* @.str.2, i64 0, i64 0))
  br label %221

221:                                              ; preds = %219, %218
  %222 = call i32 (i8*, ...) @printf(i8* getelementptr inbounds ([2 x i8], [2 x i8]* @.str.3, i64 0, i64 0))
  ret void
}

declare dso_local i32 @__isoc99_scanf(i8*, ...) #1

; Function Attrs: nounwind readonly
declare dso_local i64 @strlen(i8*) #2

declare dso_local i32 @printf(i8*, ...) #1


!llvm.module.flags = !{!0}
!llvm.ident = !{!1}

!0 = !{i32 1, !"wchar_size", i32 4}
!1 = !{!"clang version 10.0.0-4ubuntu1 "}
